target datalayout = "e-m:e-p270:32:32-p271:32:32-p272:64:64-i64:64-i128:128-f80:128-n8:16:32:64-S128"
target triple = "x86_64-pc-linux-gnu"

%"class.llvm::APInt" = type <{ %union.anon, i32, [4 x i8] }>
%union.anon = type { i64 }

; Function Attrs: mustprogress nounwind uwtable
define linkonce_odr hidden noundef i32 @_ZN4llvm5APInt11getNumWordsEj(i32 noundef %0) #0 comdat align 2 {
  %2 = alloca i32, align 4
  store i32 %0, ptr %2, align 4
  %3 = load i32, ptr %2, align 4
  %4 = zext i32 %3 to i64
  %5 = add i64 %4, 64
  %6 = sub i64 %5, 1
  %7 = udiv i64 %6, 64
  %8 = trunc i64 %7 to i32
  ret i32 %8
}

; Function Attrs: mustprogress nounwind uwtable
define linkonce_odr hidden noundef i32 @_ZNK4llvm5APInt11getNumWordsEv(ptr noundef nonnull align 8 dereferenceable(12) %0) #0 comdat align 2 {
  %2 = alloca ptr, align 8
  store ptr %0, ptr %2, align 8
  %3 = load ptr, ptr %2, align 8
  %4 = getelementptr inbounds nuw %"class.llvm::APInt", ptr %3, i32 0, i32 1
  %5 = load i32, ptr %4, align 8
  %6 = call noundef i32 @_ZN4llvm5APInt11getNumWordsEj(i32 noundef %5)
  ret i32 %6
}

; Function Attrs: mustprogress nounwind willreturn memory(read) uwtable
define dso_local noundef zeroext i1 @_ZNK4llvm5APInt18isSubsetOfSlowCaseERKS0_(ptr noundef nonnull align 8 dereferenceable(12) %0, ptr noundef nonnull align 8 dereferenceable(12) %1) #3 align 2 {
  %3 = alloca i1, align 1
  %4 = alloca ptr, align 8
  %5 = alloca ptr, align 8
  %6 = alloca i32, align 4
  %7 = alloca i32, align 4
  store ptr %0, ptr %4, align 8
  store ptr %1, ptr %5, align 8
  %8 = load ptr, ptr %4, align 8
  store i32 0, ptr %6, align 4
  %9 = call noundef i32 @_ZNK4llvm5APInt11getNumWordsEv(ptr noundef nonnull align 8 dereferenceable(12) %8)
  store i32 %9, ptr %7, align 4
  br label %10

10:                                               ; preds = %33, %2
  %11 = load i32, ptr %6, align 4
  %12 = load i32, ptr %7, align 4
  %13 = icmp ne i32 %11, %12
  br i1 %13, label %14, label %36

14:                                               ; preds = %10
  %15 = getelementptr inbounds nuw %"class.llvm::APInt", ptr %8, i32 0, i32 0
  %16 = load ptr, ptr %15, align 8
  %17 = load i32, ptr %6, align 4
  %18 = zext i32 %17 to i64
  %19 = getelementptr inbounds i64, ptr %16, i64 %18
  %20 = load i64, ptr %19, align 8
  %21 = load ptr, ptr %5, align 8
  %22 = getelementptr inbounds nuw %"class.llvm::APInt", ptr %21, i32 0, i32 0
  %23 = load ptr, ptr %22, align 8
  %24 = load i32, ptr %6, align 4
  %25 = zext i32 %24 to i64
  %26 = getelementptr inbounds i64, ptr %23, i64 %25
  %27 = load i64, ptr %26, align 8
  %28 = xor i64 %27, -1
  %29 = and i64 %20, %28
  %30 = icmp ne i64 %29, 0
  br i1 %30, label %31, label %32

31:                                               ; preds = %14
  store i1 false, ptr %3, align 1
  br label %37

32:                                               ; preds = %14
  br label %33

33:                                               ; preds = %32
  %34 = load i32, ptr %6, align 4
  %35 = add i32 %34, 1
  store i32 %35, ptr %6, align 4
  br label %10, !llvm.loop !30

36:                                               ; preds = %10
  store i1 true, ptr %3, align 1
  br label %37

37:                                               ; preds = %36, %31
  %38 = load i1, ptr %3, align 1
  ret i1 %38
}