; Function Attrs: mustprogress nofree norecurse nosync nounwind willreturn memory(read, inaccessiblemem: none) uwtable
define dso_local noundef zeroext i1 @_ZNK4llvm5APInt18isSubsetOfSlowCaseERKS0_(ptr noundef nonnull readonly align 8 captures(none) dereferenceable(12) %0, ptr noundef nonnull readonly align 8 captures(none) dereferenceable(12) %1) local_unnamed_addr #3 align 2 {
  %3 = getelementptr inbounds nuw i8, ptr %0, i64 8
  %4 = load i32, ptr %3, align 8
  %5 = zext i32 %4 to i64
  %6 = add nuw nsw i64 %5, 63
  %7 = lshr i64 %6, 6
  %8 = trunc nuw nsw i64 %7 to i32
  %.not9 = icmp eq i32 %4, 0
  br i1 %.not9, label %._crit_edge, label %.lr.ph

.lr.ph:                                           ; preds = %2
  %9 = load ptr, ptr %0, align 8
  %10 = load ptr, ptr %1, align 8
  br label %11

11:                                               ; preds = %11, %.lr.ph
  %.0710 = phi i32 [ 0, %.lr.ph ], [ %19, %11 ]
  %12 = zext nneg i32 %.0710 to i64
  %13 = getelementptr inbounds nuw i64, ptr %9, i64 %12
  %14 = load i64, ptr %13, align 8
  %15 = getelementptr inbounds nuw i64, ptr %10, i64 %12
  %16 = load i64, ptr %15, align 8
  %17 = xor i64 %16, -1
  %18 = and i64 %14, %17
  %.not8 = icmp eq i64 %18, 0
  %19 = add nuw nsw i32 %.0710, 1
  %.not = icmp ne i32 %19, %8
  %or.cond.not = select i1 %.not8, i1 %.not, i1 false
  br i1 %or.cond.not, label %11, label %._crit_edge, !llvm.loop !59

._crit_edge:                                      ; preds = %11, %2
  %.not.lcssa = phi i1 [ true, %2 ], [ %.not8, %11 ]
  ret i1 %.not.lcssa
}